; ModuleID = '22/286.c'
source_filename = "22/286.c"
target datalayout = "e-m:e-p270:32:32-p271:32:32-p272:64:64-i64:64-f80:128-n8:16:32:64-S128"
target triple = "x86_64-pc-linux-gnu"

@.str = private unnamed_addr constant [3 x i8] c"%d\00", align 1
@.str.1 = private unnamed_addr constant [3 x i8] c"No\00", align 1

; Function Attrs: noinline nounwind uwtable
define dso_local void @main() #0 {
  %1 = alloca [1000 x i32], align 16
  %2 = alloca i8, align 1
  %3 = alloca i8, align 1
  %4 = alloca i32, align 4
  %5 = alloca i32, align 4
  %6 = alloca i32, align 4
  %7 = alloca i32, align 4
  %8 = alloca i32, align 4
  %9 = alloca i32, align 4
  store i32 -1, i32* %7, align 4
  store i32 0, i32* %8, align 4
  store i32 0, i32* %9, align 4
  store i32 0, i32* %5, align 4
  br label %10

10:                                               ; preds = %22, %0
  %11 = load i32, i32* %5, align 4
  %12 = sext i32 %11 to i64
  %13 = getelementptr inbounds [1000 x i32], [1000 x i32]* %1, i64 0, i64 %12
  %14 = call i32 (i8*, ...) @__isoc99_scanf(i8* getelementptr inbounds ([3 x i8], [3 x i8]* @.str, i64 0, i64 0), i32* %13)
  %15 = call i32 @getchar()
  %16 = trunc i32 %15 to i8
  store i8 %16, i8* %2, align 1
  %17 = load i8, i8* %2, align 1
  %18 = sext i8 %17 to i32
  %19 = icmp ne i32 %18, 44
  br i1 %19, label %20, label %21

20:                                               ; preds = %10
  br label %25

21:                                               ; preds = %10
  br label %22

22:                                               ; preds = %21
  %23 = load i32, i32* %5, align 4
  %24 = add nsw i32 %23, 1
  store i32 %24, i32* %5, align 4
  br label %10

25:                                               ; preds = %20
  %26 = load i32, i32* %5, align 4
  store i32 %26, i32* %4, align 4
  store i32 0, i32* %5, align 4
  br label %27

27:                                               ; preds = %44, %25
  %28 = load i32, i32* %5, align 4
  %29 = load i32, i32* %4, align 4
  %30 = icmp sle i32 %28, %29
  br i1 %30, label %31, label %47

31:                                               ; preds = %27
  %32 = load i32, i32* %5, align 4
  %33 = sext i32 %32 to i64
  %34 = getelementptr inbounds [1000 x i32], [1000 x i32]* %1, i64 0, i64 %33
  %35 = load i32, i32* %34, align 4
  %36 = load i32, i32* %8, align 4
  %37 = icmp sgt i32 %35, %36
  br i1 %37, label %38, label %43

38:                                               ; preds = %31
  %39 = load i32, i32* %5, align 4
  %40 = sext i32 %39 to i64
  %41 = getelementptr inbounds [1000 x i32], [1000 x i32]* %1, i64 0, i64 %40
  %42 = load i32, i32* %41, align 4
  store i32 %42, i32* %8, align 4
  br label %43

43:                                               ; preds = %38, %31
  br label %44

44:                                               ; preds = %43
  %45 = load i32, i32* %5, align 4
  %46 = add nsw i32 %45, 1
  store i32 %46, i32* %5, align 4
  br label %27

47:                                               ; preds = %27
  store i32 0, i32* %5, align 4
  br label %48

48:                                               ; preds = %64, %47
  %49 = load i32, i32* %5, align 4
  %50 = load i32, i32* %4, align 4
  %51 = icmp sle i32 %49, %50
  br i1 %51, label %52, label %67

52:                                               ; preds = %48
  %53 = load i32, i32* %5, align 4
  %54 = sext i32 %53 to i64
  %55 = getelementptr inbounds [1000 x i32], [1000 x i32]* %1, i64 0, i64 %54
  %56 = load i32, i32* %55, align 4
  %57 = load i32, i32* %8, align 4
  %58 = icmp eq i32 %56, %57
  br i1 %58, label %59, label %63

59:                                               ; preds = %52
  %60 = load i32, i32* %5, align 4
  %61 = sext i32 %60 to i64
  %62 = getelementptr inbounds [1000 x i32], [1000 x i32]* %1, i64 0, i64 %61
  store i32 -1, i32* %62, align 4
  br label %63

63:                                               ; preds = %59, %52
  br label %64

64:                                               ; preds = %63
  %65 = load i32, i32* %5, align 4
  %66 = add nsw i32 %65, 1
  store i32 %66, i32* %5, align 4
  br label %48

67:                                               ; preds = %48
  store i32 0, i32* %5, align 4
  br label %68

68:                                               ; preds = %85, %67
  %69 = load i32, i32* %5, align 4
  %70 = load i32, i32* %4, align 4
  %71 = icmp sle i32 %69, %70
  br i1 %71, label %72, label %88

72:                                               ; preds = %68
  %73 = load i32, i32* %5, align 4
  %74 = sext i32 %73 to i64
  %75 = getelementptr inbounds [1000 x i32], [1000 x i32]* %1, i64 0, i64 %74
  %76 = load i32, i32* %75, align 4
  %77 = load i32, i32* %7, align 4
  %78 = icmp sgt i32 %76, %77
  br i1 %78, label %79, label %84

79:                                               ; preds = %72
  %80 = load i32, i32* %5, align 4
  %81 = sext i32 %80 to i64
  %82 = getelementptr inbounds [1000 x i32], [1000 x i32]* %1, i64 0, i64 %81
  %83 = load i32, i32* %82, align 4
  store i32 %83, i32* %7, align 4
  br label %84

84:                                               ; preds = %79, %72
  br label %85

85:                                               ; preds = %84
  %86 = load i32, i32* %5, align 4
  %87 = add nsw i32 %86, 1
  store i32 %87, i32* %5, align 4
  br label %68

88:                                               ; preds = %68
  %89 = load i32, i32* %7, align 4
  %90 = icmp ne i32 %89, -1
  br i1 %90, label %91, label %94

91:                                               ; preds = %88
  %92 = load i32, i32* %7, align 4
  %93 = call i32 (i8*, ...) @printf(i8* getelementptr inbounds ([3 x i8], [3 x i8]* @.str, i64 0, i64 0), i32 %92)
  br label %96

94:                                               ; preds = %88
  %95 = call i32 (i8*, ...) @printf(i8* getelementptr inbounds ([3 x i8], [3 x i8]* @.str.1, i64 0, i64 0))
  br label %96

96:                                               ; preds = %94, %91
  ret void
}

declare dso_local i32 @__isoc99_scanf(i8*, ...) #1

declare dso_local i32 @getchar() #1

declare dso_local i32 @printf(i8*, ...) #1


!llvm.module.flags = !{!0}
!llvm.ident = !{!1}

!0 = !{i32 1, !"wchar_size", i32 4}
!1 = !{!"clang version 10.0.0-4ubuntu1 "}
